; Function Attrs: nounwind uwtable
define ptr @l_Std_Tactic_BVDecide_LRAT_Internal_DefaultFormula_numClausesInFormula___boxed(ptr noundef %0, ptr noundef %1) local_unnamed_addr #1 {
  %3 = getelementptr inbounds nuw i8, ptr %1, i64 8
  %4 = load ptr, ptr %3, align 8, !tbaa !9
  %5 = getelementptr i8, ptr %4, i64 8
  %.val.i = load i64, ptr %5, align 8, !tbaa !12
  %6 = tail call ptr @l_Array_forIn_x27Unsafe_loop___at_Std_Tactic_BVDecide_LRAT_Internal_DefaultFormula_numClausesInFormula___spec__2(ptr readnone poison, ptr nonnull poison, ptr poison, ptr noundef %4, i64 noundef %.val.i, i64 noundef 0, ptr noundef nonnull inttoptr (i64 1 to ptr))
  %7 = ptrtoint ptr %1 to i64
  %8 = and i64 %7, 1
  %.not = icmp eq i64 %8, 0
  br i1 %.not, label %9, label %lean_dec.exit5

9:                                                ; preds = %2
  %10 = load i32, ptr %1, align 4, !tbaa !4
  %11 = icmp sgt i32 %10, 1
  br i1 %11, label %12, label %14, !prof !11

12:                                               ; preds = %9
  %13 = add nsw i32 %10, -1
  store i32 %13, ptr %1, align 4, !tbaa !4
  br label %lean_dec.exit5

14:                                               ; preds = %9
  %.not.i = icmp eq i32 %10, 0
  br i1 %.not.i, label %lean_dec.exit5, label %15

15:                                               ; preds = %14
  tail call void @lean_dec_ref_cold(ptr noundef nonnull %1) #5
  br label %lean_dec.exit5

lean_dec.exit5:                                   ; preds = %15, %14, %12, %2
  %16 = ptrtoint ptr %0 to i64
  %17 = and i64 %16, 1
  %.not8 = icmp eq i64 %17, 0
  br i1 %.not8, label %18, label %lean_dec.exit

18:                                               ; preds = %lean_dec.exit5
  %19 = load i32, ptr %0, align 4, !tbaa !4
  %20 = icmp sgt i32 %19, 1
  br i1 %20, label %21, label %23, !prof !11

21:                                               ; preds = %18
  %22 = add nsw i32 %19, -1
  store i32 %22, ptr %0, align 4, !tbaa !4
  br label %lean_dec.exit

23:                                               ; preds = %18
  %.not.i6 = icmp eq i32 %19, 0
  br i1 %.not.i6, label %lean_dec.exit, label %24

24:                                               ; preds = %23
  tail call void @lean_dec_ref_cold(ptr noundef nonnull %0) #5
  br label %lean_dec.exit

lean_dec.exit:                                    ; preds = %24, %23, %21, %lean_dec.exit5
  ret ptr %6
}